target datalayout = "e-m:e-p270:32:32-p271:32:32-p272:64:64-i64:64-i128:128-f80:128-n8:16:32:64-S128"
target triple = "x86_64-unknown-linux-gnu"

; Function Attrs: mustprogress nounwind uwtable
define linkonce_odr noundef ptr @_ZN6icu_7510UnicodeSet6toUSetEv(ptr noundef nonnull align 8 dereferenceable(200) %this) #1 comdat align 2 {
entry:
  %this.addr = alloca ptr, align 8
  store ptr %this, ptr %this.addr, align 8
  %this1 = load ptr, ptr %this.addr, align 8
  ret ptr %this1
}

; Function Attrs: mustprogress nounwind uwtable
define linkonce_odr noundef ptr @_ZN6icu_758Collator13fromUCollatorEPK9UCollator(ptr noundef %uc) #1 comdat align 2 {
entry:
  %uc.addr = alloca ptr, align 8
  store ptr %uc, ptr %uc.addr, align 8
  %0 = load ptr, ptr %uc.addr, align 8
  ret ptr %0
}

; Function Attrs: mustprogress nounwind uwtable
define internal noundef signext i8 @_ZL9U_FAILURE10UErrorCode(i32 noundef %code) #1 {
entry:
  %code.addr = alloca i32, align 4
  store i32 %code, ptr %code.addr, align 4
  %0 = load i32, ptr %code.addr, align 4
  %cmp = icmp sgt i32 %0, 0
  %conv = zext i1 %cmp to i8
  ret i8 %conv
}

; Function Attrs: mustprogress uwtable
define ptr @ucol_getTailoredSet_75(ptr noundef %coll, ptr noundef %status) #0 {
entry:
  %retval = alloca ptr, align 8
  %coll.addr = alloca ptr, align 8
  %status.addr = alloca ptr, align 8
  %set = alloca ptr, align 8
  store ptr %coll, ptr %coll.addr, align 8
  store ptr %status, ptr %status.addr, align 8
  %0 = load ptr, ptr %status.addr, align 8
  %1 = load i32, ptr %0, align 4
  %call = call noundef signext i8 @_ZL9U_FAILURE10UErrorCode(i32 noundef %1)
  %tobool = icmp ne i8 %call, 0
  br i1 %tobool, label %if.then, label %if.end

if.then:                                          ; preds = %entry
  store ptr null, ptr %retval, align 8
  br label %return

if.end:                                           ; preds = %entry
  %2 = load ptr, ptr %coll.addr, align 8
  %call1 = call noundef ptr @_ZN6icu_758Collator13fromUCollatorEPK9UCollator(ptr noundef %2)
  %3 = load ptr, ptr %status.addr, align 8
  %vtable = load ptr, ptr %call1, align 8
  %vfn = getelementptr inbounds ptr, ptr %vtable, i64 31
  %4 = load ptr, ptr %vfn, align 8
  %call2 = call noundef ptr %4(ptr noundef nonnull align 8 dereferenceable(8) %call1, ptr noundef nonnull align 4 dereferenceable(4) %3)
  store ptr %call2, ptr %set, align 8
  %5 = load ptr, ptr %status.addr, align 8
  %6 = load i32, ptr %5, align 4
  %call3 = call noundef signext i8 @_ZL9U_FAILURE10UErrorCode(i32 noundef %6)
  %tobool4 = icmp ne i8 %call3, 0
  br i1 %tobool4, label %if.then5, label %if.end6

if.then5:                                         ; preds = %if.end
  %7 = load ptr, ptr %set, align 8
  %isnull = icmp eq ptr %7, null
  br i1 %isnull, label %delete.end, label %delete.notnull

delete.notnull:                                   ; preds = %if.then5
  call void @_ZN6icu_7510UnicodeSetD1Ev(ptr noundef nonnull align 8 dereferenceable(200) %7) #7
  call void @_ZN6icu_757UMemorydlEPv(ptr noundef %7) #7
  br label %delete.end

delete.end:                                       ; preds = %delete.notnull, %if.then5
  store ptr null, ptr %retval, align 8
  br label %return

if.end6:                                          ; preds = %if.end
  %8 = load ptr, ptr %set, align 8
  %call7 = call noundef ptr @_ZN6icu_7510UnicodeSet6toUSetEv(ptr noundef nonnull align 8 dereferenceable(200) %8)
  store ptr %call7, ptr %retval, align 8
  br label %return

return:                                           ; preds = %if.end6, %delete.end, %if.then
  %9 = load ptr, ptr %retval, align 8
  ret ptr %9
}