; Function Attrs: mustprogress uwtable
define noundef ptr @ucol_getTailoredSet_75(ptr noundef %coll, ptr noundef %status) local_unnamed_addr #0 {
entry:
  %0 = load i32, ptr %status, align 4
  %cmp.i = icmp slt i32 %0, 1
  br i1 %cmp.i, label %if.end, label %return

if.end:                                           ; preds = %entry
  %vtable = load ptr, ptr %coll, align 8
  %vfn = getelementptr inbounds i8, ptr %vtable, i64 248
  %1 = load ptr, ptr %vfn, align 8
  %call2 = tail call noundef ptr %1(ptr noundef nonnull align 8 dereferenceable(8) %coll, ptr noundef nonnull align 4 dereferenceable(4) %status)
  %2 = load i32, ptr %status, align 4
  %cmp.i4 = icmp slt i32 %2, 1
  br i1 %cmp.i4, label %return, label %if.then5

if.then5:                                         ; preds = %if.end
  %isnull = icmp eq ptr %call2, null
  br i1 %isnull, label %return, label %delete.notnull

delete.notnull:                                   ; preds = %if.then5
  tail call void @_ZN6icu_7510UnicodeSetD1Ev(ptr noundef nonnull align 8 dereferenceable(200) %call2) #10
  tail call void @_ZN6icu_757UMemorydlEPv(ptr noundef nonnull %call2) #10
  br label %return

return:                                           ; preds = %if.end, %if.then5, %delete.notnull, %entry
  %retval.0 = phi ptr [ null, %entry ], [ null, %delete.notnull ], [ null, %if.then5 ], [ %call2, %if.end ]
  ret ptr %retval.0
}